; Listing generated by Microsoft (R) Optimizing Compiler Version 19.00.24215.1 

	TITLE	E:\VS2015\QTcode\project\src\testlua\Debug\moc_panquickkernel.cpp
	.686P
	.XMM
	include listing.inc
	.model	flat

INCLUDELIB MSVCRTD
INCLUDELIB OLDNAMES

CONST	SEGMENT
$SG84199 DB	'D:\Qt\Qt5.7.0\5.7\msvc2015\include\QtCore/qmetatype.h', 00H
	ORG $+2
$SG84200 DB	'qRegisterNormalizedMetaType was called with a not normal'
	DB	'ized type name, please call qRegisterMetaType instead.', 00H
	ORG $+1
$SG84201 DB	'qRegisterNormalizedMetaType', 00H
$SG84489 DB	'D:\Qt\Qt5.7.0\5.7\msvc2015\include\QtCore/qmetatype.h', 00H
	ORG $+6
$SG84490 DB	'qRegisterNormalizedMetaType was called with a not normal'
	DB	'ized type name, please call qRegisterMetaType instead.', 00H
	ORG $+1
$SG84491 DB	'qRegisterNormalizedMetaType', 00H
$SG84779 DB	'D:\Qt\Qt5.7.0\5.7\msvc2015\include\QtCore/qmetatype.h', 00H
	ORG $+6
$SG84780 DB	'qRegisterNormalizedMetaType was called with a not normal'
	DB	'ized type name, please call qRegisterMetaType instead.', 00H
	ORG $+1
$SG84781 DB	'qRegisterNormalizedMetaType', 00H
?qt_meta_stringdata_PanQuickKernel@@3Uqt_meta_stringdata_PanQuickKernel_t@@B DD 0ffffffffH ; qt_meta_stringdata_PanQuickKernel
	DD	0eH
	DD	00H
	DD	010H
	DB	'PanQuickKernel', 00H
	ORG $+1
?qt_meta_data_PanQuickKernel@@3QBIB DD 07H		; qt_meta_data_PanQuickKernel
	DD	00H
	DD	00H
	DD	00H
	DD	00H
	DD	00H
	DD	00H
	DD	00H
	DD	00H
	DD	00H
	DD	00H
	DD	00H
	DD	00H
	DD	00H
	DD	00H
CONST	ENDS
PUBLIC	?__empty_global_delete@@YAXPAX@Z		; __empty_global_delete
PUBLIC	?__empty_global_delete@@YAXPAXI@Z		; __empty_global_delete
PUBLIC	?qt_noop@@YAXXZ					; qt_noop
PUBLIC	??C?$QScopedPointer@VQObjectData@@U?$QScopedPointerDeleter@VQObjectData@@@@@@QBEPAVQObjectData@@XZ ; QScopedPointer<QObjectData,QScopedPointerDeleter<QObjectData> >::operator->
PUBLIC	?metaObject@PanQuickKernel@@UBEPBUQMetaObject@@XZ ; PanQuickKernel::metaObject
PUBLIC	?qt_metacast@PanQuickKernel@@UAEPAXPBD@Z	; PanQuickKernel::qt_metacast
PUBLIC	?qt_metacall@PanQuickKernel@@UAEHW4Call@QMetaObject@@HPAPAX@Z ; PanQuickKernel::qt_metacall
PUBLIC	?qt_static_metacall@PanQuickKernel@@CAXPAVQObject@@W4Call@QMetaObject@@HPAPAX@Z ; PanQuickKernel::qt_static_metacall
PUBLIC	?staticMetaObject@PanQuickKernel@@2UQMetaObject@@B ; PanQuickKernel::staticMetaObject
PUBLIC	??_C@_0DL@BPPOBMLO@D?3?2Qt?2Qt5?47?40?25?47?2msvc2015?2inclu@ ; `string'
PUBLIC	??_C@_01LPLHEDKD@d?$AA@				; `string'
EXTRN	_strcmp:PROC
EXTRN	__imp_?qt_assert@@YAXPBD0H@Z:PROC
EXTRN	__imp_?dynamicMetaObject@QObjectData@@QBEPAUQMetaObject@@XZ:PROC
EXTRN	__imp_?qt_metacast@QObject@@UAEPAXPBD@Z:PROC
EXTRN	__imp_?qt_metacall@QObject@@UAEHW4Call@QMetaObject@@HPAPAX@Z:PROC
EXTRN	__imp_?staticMetaObject@QObject@@2UQMetaObject@@B:BYTE
_BSS	SEGMENT
?staticMetaObject@PanQuickKernel@@2UQMetaObject@@B DB 018H DUP (?) ; PanQuickKernel::staticMetaObject
_BSS	ENDS
CRT$XCU	SEGMENT
??staticMetaObject$initializer$@PanQuickKernel@@2P6AXXZA@@3P6AXXZA DD FLAT:??__E?staticMetaObject@PanQuickKernel@@2UQMetaObject@@B@@YAXXZ ; ??staticMetaObject$initializer$@PanQuickKernel@@2P6AXXZA@@3P6AXXZA
CRT$XCU	ENDS
;	COMDAT ??_C@_01LPLHEDKD@d?$AA@
CONST	SEGMENT
??_C@_01LPLHEDKD@d?$AA@ DB 'd', 00H			; `string'
CONST	ENDS
;	COMDAT ??_C@_0DL@BPPOBMLO@D?3?2Qt?2Qt5?47?40?25?47?2msvc2015?2inclu@
CONST	SEGMENT
??_C@_0DL@BPPOBMLO@D?3?2Qt?2Qt5?47?40?25?47?2msvc2015?2inclu@ DB 'D:\Qt\Q'
	DB	't5.7.0\5.7\msvc2015\include\QtCore/qscopedpointer.h', 00H ; `string'
CONST	ENDS
; Function compile flags: /Odtp
;	COMDAT ??__E?staticMetaObject@PanQuickKernel@@2UQMetaObject@@B@@YAXXZ
text$di	SEGMENT
??__E?staticMetaObject@PanQuickKernel@@2UQMetaObject@@B@@YAXXZ PROC ; `dynamic initializer for 'PanQuickKernel::staticMetaObject'', COMDAT
; File e:\vs2015\qtcode\project\src\testlua\debug\moc_panquickkernel.cpp
; Line 66
	push	ebp
	mov	ebp, esp
; Line 64
	mov	eax, DWORD PTR __imp_?staticMetaObject@QObject@@2UQMetaObject@@B
	mov	DWORD PTR ?staticMetaObject@PanQuickKernel@@2UQMetaObject@@B, eax
	mov	DWORD PTR ?staticMetaObject@PanQuickKernel@@2UQMetaObject@@B+4, OFFSET ?qt_meta_stringdata_PanQuickKernel@@3Uqt_meta_stringdata_PanQuickKernel_t@@B
; Line 65
	mov	DWORD PTR ?staticMetaObject@PanQuickKernel@@2UQMetaObject@@B+8, OFFSET ?qt_meta_data_PanQuickKernel@@3QBIB
	mov	DWORD PTR ?staticMetaObject@PanQuickKernel@@2UQMetaObject@@B+12, OFFSET ?qt_static_metacall@PanQuickKernel@@CAXPAVQObject@@W4Call@QMetaObject@@HPAPAX@Z ; PanQuickKernel::qt_static_metacall
	mov	DWORD PTR ?staticMetaObject@PanQuickKernel@@2UQMetaObject@@B+16, 0
	mov	DWORD PTR ?staticMetaObject@PanQuickKernel@@2UQMetaObject@@B+20, 0
	pop	ebp
	ret	0
??__E?staticMetaObject@PanQuickKernel@@2UQMetaObject@@B@@YAXXZ ENDP ; `dynamic initializer for 'PanQuickKernel::staticMetaObject''
text$di	ENDS
; Function compile flags: /Odtp
_TEXT	SEGMENT
__o$ = 8						; size = 4
__c$ = 12						; size = 4
__id$ = 16						; size = 4
__a$ = 20						; size = 4
?qt_static_metacall@PanQuickKernel@@CAXPAVQObject@@W4Call@QMetaObject@@HPAPAX@Z PROC ; PanQuickKernel::qt_static_metacall
; File e:\vs2015\qtcode\project\src\testlua\debug\moc_panquickkernel.cpp
; Line 56
	push	ebp
	mov	ebp, esp
; Line 61
	pop	ebp
	ret	0
?qt_static_metacall@PanQuickKernel@@CAXPAVQObject@@W4Call@QMetaObject@@HPAPAX@Z ENDP ; PanQuickKernel::qt_static_metacall
_TEXT	ENDS
; Function compile flags: /Odtp
_TEXT	SEGMENT
_this$ = -4						; size = 4
__c$ = 8						; size = 4
__id$ = 12						; size = 4
__a$ = 16						; size = 4
?qt_metacall@PanQuickKernel@@UAEHW4Call@QMetaObject@@HPAPAX@Z PROC ; PanQuickKernel::qt_metacall
; _this$ = ecx
; File e:\vs2015\qtcode\project\src\testlua\debug\moc_panquickkernel.cpp
; Line 83
	push	ebp
	mov	ebp, esp
	push	ecx
	mov	DWORD PTR _this$[ebp], ecx
; Line 84
	mov	eax, DWORD PTR __a$[ebp]
	push	eax
	mov	ecx, DWORD PTR __id$[ebp]
	push	ecx
	mov	edx, DWORD PTR __c$[ebp]
	push	edx
	mov	ecx, DWORD PTR _this$[ebp]
	call	DWORD PTR __imp_?qt_metacall@QObject@@UAEHW4Call@QMetaObject@@HPAPAX@Z
	mov	DWORD PTR __id$[ebp], eax
; Line 85
	cmp	DWORD PTR __id$[ebp], 0
	jge	SHORT $LN2@qt_metacal
; Line 86
	mov	eax, DWORD PTR __id$[ebp]
	jmp	SHORT $LN1@qt_metacal
$LN2@qt_metacal:
; Line 87
	mov	eax, DWORD PTR __id$[ebp]
$LN1@qt_metacal:
; Line 88
	mov	esp, ebp
	pop	ebp
	ret	12					; 0000000cH
?qt_metacall@PanQuickKernel@@UAEHW4Call@QMetaObject@@HPAPAX@Z ENDP ; PanQuickKernel::qt_metacall
_TEXT	ENDS
; Function compile flags: /Odtp
_TEXT	SEGMENT
_this$ = -4						; size = 4
__clname$ = 8						; size = 4
?qt_metacast@PanQuickKernel@@UAEPAXPBD@Z PROC		; PanQuickKernel::qt_metacast
; _this$ = ecx
; File e:\vs2015\qtcode\project\src\testlua\debug\moc_panquickkernel.cpp
; Line 75
	push	ebp
	mov	ebp, esp
	push	ecx
	mov	DWORD PTR _this$[ebp], ecx
; Line 76
	cmp	DWORD PTR __clname$[ebp], 0
	jne	SHORT $LN2@qt_metacas
	xor	eax, eax
	jmp	SHORT $LN1@qt_metacas
$LN2@qt_metacas:
; Line 77
	push	OFFSET ?qt_meta_stringdata_PanQuickKernel@@3Uqt_meta_stringdata_PanQuickKernel_t@@B+16
	mov	eax, DWORD PTR __clname$[ebp]
	push	eax
	call	_strcmp
	add	esp, 8
	test	eax, eax
	jne	SHORT $LN3@qt_metacas
; Line 78
	mov	eax, DWORD PTR _this$[ebp]
	jmp	SHORT $LN1@qt_metacas
$LN3@qt_metacas:
; Line 79
	mov	ecx, DWORD PTR __clname$[ebp]
	push	ecx
	mov	ecx, DWORD PTR _this$[ebp]
	call	DWORD PTR __imp_?qt_metacast@QObject@@UAEPAXPBD@Z
$LN1@qt_metacas:
; Line 80
	mov	esp, ebp
	pop	ebp
	ret	4
?qt_metacast@PanQuickKernel@@UAEPAXPBD@Z ENDP		; PanQuickKernel::qt_metacast
_TEXT	ENDS
; Function compile flags: /Odtp
_TEXT	SEGMENT
tv82 = -8						; size = 4
_this$ = -4						; size = 4
?metaObject@PanQuickKernel@@UBEPBUQMetaObject@@XZ PROC	; PanQuickKernel::metaObject
; _this$ = ecx
; File e:\vs2015\qtcode\project\src\testlua\debug\moc_panquickkernel.cpp
; Line 70
	push	ebp
	mov	ebp, esp
	sub	esp, 8
	mov	DWORD PTR _this$[ebp], ecx
; Line 71
	mov	ecx, DWORD PTR _this$[ebp]
	add	ecx, 4
	call	??C?$QScopedPointer@VQObjectData@@U?$QScopedPointerDeleter@VQObjectData@@@@@@QBEPAVQObjectData@@XZ ; QScopedPointer<QObjectData,QScopedPointerDeleter<QObjectData> >::operator->
	cmp	DWORD PTR [eax+24], 0
	je	SHORT $LN3@metaObject
	mov	ecx, DWORD PTR _this$[ebp]
	add	ecx, 4
	call	??C?$QScopedPointer@VQObjectData@@U?$QScopedPointerDeleter@VQObjectData@@@@@@QBEPAVQObjectData@@XZ ; QScopedPointer<QObjectData,QScopedPointerDeleter<QObjectData> >::operator->
	mov	ecx, eax
	call	DWORD PTR __imp_?dynamicMetaObject@QObjectData@@QBEPAUQMetaObject@@XZ
	mov	DWORD PTR tv82[ebp], eax
	jmp	SHORT $LN4@metaObject
$LN3@metaObject:
	mov	DWORD PTR tv82[ebp], OFFSET ?staticMetaObject@PanQuickKernel@@2UQMetaObject@@B ; PanQuickKernel::staticMetaObject
$LN4@metaObject:
	mov	eax, DWORD PTR tv82[ebp]
; Line 72
	mov	esp, ebp
	pop	ebp
	ret	0
?metaObject@PanQuickKernel@@UBEPBUQMetaObject@@XZ ENDP	; PanQuickKernel::metaObject
_TEXT	ENDS
; Function compile flags: /Odtp
;	COMDAT ??C?$QScopedPointer@VQObjectData@@U?$QScopedPointerDeleter@VQObjectData@@@@@@QBEPAVQObjectData@@XZ
_TEXT	SEGMENT
tv69 = -8						; size = 4
_this$ = -4						; size = 4
??C?$QScopedPointer@VQObjectData@@U?$QScopedPointerDeleter@VQObjectData@@@@@@QBEPAVQObjectData@@XZ PROC ; QScopedPointer<QObjectData,QScopedPointerDeleter<QObjectData> >::operator->, COMDAT
; _this$ = ecx
; File d:\qt\qt5.7.0\5.7\msvc2015\include\qtcore\qscopedpointer.h
; Line 117
	push	ebp
	mov	ebp, esp
	sub	esp, 8
	mov	DWORD PTR _this$[ebp], ecx
; Line 118
	mov	eax, DWORD PTR _this$[ebp]
	cmp	DWORD PTR [eax], 0
	jne	SHORT $LN3@operator
	push	118					; 00000076H
	push	OFFSET ??_C@_0DL@BPPOBMLO@D?3?2Qt?2Qt5?47?40?25?47?2msvc2015?2inclu@
	push	OFFSET ??_C@_01LPLHEDKD@d?$AA@
	call	DWORD PTR __imp_?qt_assert@@YAXPBD0H@Z
	add	esp, 12					; 0000000cH
	mov	DWORD PTR tv69[ebp], 0
	jmp	SHORT $LN4@operator
$LN3@operator:
	call	?qt_noop@@YAXXZ				; qt_noop
	mov	DWORD PTR tv69[ebp], 0
$LN4@operator:
; Line 119
	mov	ecx, DWORD PTR _this$[ebp]
	mov	eax, DWORD PTR [ecx]
; Line 120
	mov	esp, ebp
	pop	ebp
	ret	0
??C?$QScopedPointer@VQObjectData@@U?$QScopedPointerDeleter@VQObjectData@@@@@@QBEPAVQObjectData@@XZ ENDP ; QScopedPointer<QObjectData,QScopedPointerDeleter<QObjectData> >::operator->
_TEXT	ENDS
; Function compile flags: /Odtp
;	COMDAT ?qt_noop@@YAXXZ
_TEXT	SEGMENT
?qt_noop@@YAXXZ PROC					; qt_noop, COMDAT
; File d:\qt\qt5.7.0\5.7\msvc2015\include\qtcore\qglobal.h
; Line 636
	push	ebp
	mov	ebp, esp
	pop	ebp
	ret	0
?qt_noop@@YAXXZ ENDP					; qt_noop
_TEXT	ENDS
; Function compile flags: /Odtp
;	COMDAT ?__empty_global_delete@@YAXPAXI@Z
_TEXT	SEGMENT
___formal$ = 8						; size = 4
___formal$ = 12						; size = 4
?__empty_global_delete@@YAXPAXI@Z PROC			; __empty_global_delete, COMDAT
; File e:\vs2015\qtcode\project\src\testlua\debug\moc_panquickkernel.cpp
; Line 90
	push	ebp
	mov	ebp, esp
	pop	ebp
	ret	0
?__empty_global_delete@@YAXPAXI@Z ENDP			; __empty_global_delete
_TEXT	ENDS
; Function compile flags: /Odtp
;	COMDAT ?__empty_global_delete@@YAXPAX@Z
_TEXT	SEGMENT
___formal$ = 8						; size = 4
?__empty_global_delete@@YAXPAX@Z PROC			; __empty_global_delete, COMDAT
; File e:\vs2015\qtcode\project\src\testlua\debug\moc_panquickkernel.cpp
; Line 90
	push	ebp
	mov	ebp, esp
	pop	ebp
	ret	0
?__empty_global_delete@@YAXPAX@Z ENDP			; __empty_global_delete
_TEXT	ENDS
END
